(iglobals
MatchStat
p0
(dp1
S'group'
p2
VRound of 16
p3
sS'awayCode'
p4
S'MEX'
p5
sS'hasResults'
p6
I00
sS'when'
p7
V27 June 20:30
p8
sS'number'
p9
I52
sS'awayName'
p10
S'Mexico'
p11
sS'homeName'
p12
S'Argentina'
p13
sS'homeCode'
p14
S'ARG'
p15
sb.