(iglobals
MatchStat
p0
(dp1
S'group'
p2
S'C'
p3
sS'awayCode'
p4
S'USA'
p5
sS'hasResults'
p6
I01
sS'awayCards'
p7
(I3
I0
I0
I3
tp8
sS'when'
p9
S'12 June - 20:30'
p10
sS'number'
p11
I5
sS'awayGoals'
p12
(lp13
I40
asS'homeWiki'
p14
V:ENG: **George** (England)
p15
sS'awayWiki'
p16
V:USA: **Harmen** (USA)
p17
sS'awayName'
p18
S'USA'
p19
sS'homeName'
p20
S'England'
p21
sS'goals'
p22
(lp23
(I4
g15
tp24
a(I40
g17
tp25
asS'homeGoals'
p26
(lp27
I4
asS'homeCode'
p28
S'ENG'
p29
sS'homeCards'
p30
(I3
I0
I0
I3
tp31
sb.