(iglobals
MatchStat
p0
(dp1
S'group'
p2
VMatch for third place
p3
sS'awayCode'
p4
S'GER'
p5
sS'hasResults'
p6
I01
sS'awayCards'
p7
(I3
I0
I0
I3
tp8
sS'when'
p9
V10 July 20:30
p10
sS'number'
p11
I63
sS'awayGoals'
p12
(lp13
I19
aI56
aI82
asS'homeGoals'
p14
(lp15
I28
aI51
asS'awayName'
p16
S'Germany'
p17
sS'homeName'
p18
S'Uruguay'
p19
sS'homeCode'
p20
S'URU'
p21
sS'homeCards'
p22
(I1
I0
I0
I1
tp23
sS'goalsCode'
p24
(lp25
(I19
VGER
p26
tp27
a(I28
VURU
p28
tp29
a(I51
VURU
p30
tp31
a(I56
VGER
p32
tp33
a(I82
VGER
p34
tp35
asb.