(iglobals
MatchStat
p0
(dp1
S'group'
p2
VRound of 16
p3
sS'awayCode'
p4
S'GHA'
p5
sS'hasResults'
p6
I01
sS'awayCards'
p7
(I2
I0
I0
I2
tp8
sS'when'
p9
V26 June 20:30
p10
sS'number'
p11
I50
sS'awayGoals'
p12
(lp13
I5
aI93
asS'homeGoals'
p14
(lp15
I62
asS'awayName'
p16
S'Ghana'
p17
sS'homeName'
p18
S'USA'
p19
sS'homeCode'
p20
S'USA'
p21
sS'homeCards'
p22
(I3
I0
I0
I3
tp23
sS'goalsCode'
p24
(lp25
(I5
VGHA
p26
tp27
a(I62
VUSA
p28
tp29
a(I93
VGHA
p30
tp31
asb.