(iglobals
MatchStat
p0
(dp1
S'group'
p2
S'E'
p3
sS'awayCode'
p4
S'JPN'
p5
sS'hasResults'
p6
I01
sS'awayCards'
p7
(I2
I0
I0
I2
tp8
sS'when'
p9
V24 June 20:30
p10
sS'number'
p11
I43
sS'awayGoals'
p12
(lp13
I17
aI30
aI87
asS'homeGoals'
p14
(lp15
I81
asS'awayName'
p16
S'Japan'
p17
sS'homeName'
p18
S'Denmark'
p19
sS'homeCode'
p20
S'DEN'
p21
sS'homeCards'
p22
(I3
I0
I0
I3
tp23
sS'goalsCode'
p24
(lp25
(I17
VJPN
p26
tp27
a(I30
VJPN
p28
tp29
a(I81
VDEN
p30
tp31
a(I87
VJPN
p32
tp33
asb.