(iglobals
MatchStat
p0
(dp1
S'group'
p2
S'H'
p3
sS'awayCode'
p4
S'SUI'
p5
sS'hasResults'
p6
I01
sS'awayCards'
p7
(I4
I0
I0
I4
tp8
sS'when'
p9
V16 June 16:00
p10
sS'number'
p11
I16
sS'awayGoals'
p12
(lp13
I52
asS'homeGoals'
p14
(lp15
sS'awayName'
p16
S'Switzerland'
p17
sS'homeName'
p18
S'Spain'
p19
sS'homeCode'
p20
S'ESP'
p21
sS'homeCards'
p22
(I0
I0
I0
I0
tp23
sS'goalsCode'
p24
(lp25
(I52
VSUI
p26
tp27
asb.