(iglobals
MatchStat
p0
(dp1
S'group'
p2
VRound of 16
p3
sS'awayCode'
p4
S'JPN'
p5
sS'hasResults'
p6
I00
sS'when'
p7
V29 June 16:00
p8
sS'number'
p9
I55
sS'awayName'
p10
S'Japan'
p11
sS'homeName'
p12
S'Paraguay'
p13
sS'homeCode'
p14
S'PAR'
p15
sb.