(iglobals
MatchStat
p0
(dp1
S'group'
p2
VFinal
p3
sS'awayCode'
p4
S'ESP'
p5
sS'hasResults'
p6
I01
sS'awayCards'
p7
(I5
I0
I0
I5
tp8
sS'when'
p9
V11 July 20:30
p10
sS'number'
p11
I64
sS'awayGoals'
p12
(lp13
I116
asS'homeGoals'
p14
(lp15
sS'awayName'
p16
S'Spain'
p17
sS'homeName'
p18
S'Netherlands'
p19
sS'homeCode'
p20
S'NED'
p21
sS'homeCards'
p22
(I7
I1
I0
I10
tp23
sS'goalsCode'
p24
(lp25
(I116
VESP
p26
tp27
asb.