(iglobals
MatchStat
p0
(dp1
S'group'
p2
S'D'
p3
sS'awayCode'
p4
S'AUS'
p5
sS'hasResults'
p6
I00
sS'when'
p7
V19 June 16:00
p8
sS'number'
p9
I24
sS'awayName'
p10
S'Australia'
p11
sS'homeName'
p12
S'Ghana'
p13
sS'homeCode'
p14
S'GHA'
p15
sb.