(iglobals
MatchStat
p0
(dp1
S'group'
p2
S'C'
p3
sS'awayCode'
p4
S'SVN'
p5
sS'hasResults'
p6
I00
sS'when'
p7
V13 June 13:30
p8
sS'number'
p9
I6
sS'homeWiki'
p10
V:ALG: **\u017du\u017eu** (Algeria)
p11
sS'awayWiki'
p12
V:SVN: **Eva** (Slovenia)
p13
sS'awayName'
p14
S'Slovenia'
p15
sS'homeName'
p16
S'Algeria'
p17
sS'homeCode'
p18
S'ALG'
p19
sb.