(iglobals
MatchStat
p0
(dp1
S'group'
p2
VRound of 16
p3
sS'awayCode'
p4
S'JPN'
p5
sS'hasResults'
p6
I01
sS'awayCards'
p7
(I4
I0
I0
I4
tp8
sS'when'
p9
V29 June 16:00
p10
sS'number'
p11
I55
sS'awayGoals'
p12
(lp13
sS'homeGoals'
p14
(lp15
sS'awayName'
p16
S'Japan'
p17
sS'homeName'
p18
S'Paraguay'
p19
sS'homeCode'
p20
S'PAR'
p21
sS'homeCards'
p22
(I1
I0
I0
I1
tp23
sS'goalsCode'
p24
(lp25
sb.