(iglobals
MatchStat
p0
(dp1
S'group'
p2
S'H'
p3
sS'awayCode'
p4
S'ESP'
p5
sS'hasResults'
p6
I00
sS'when'
p7
V25 June 20:30
p8
sS'number'
p9
I47
sS'awayName'
p10
S'Spain'
p11
sS'homeName'
p12
S'Chile'
p13
sS'homeCode'
p14
S'CHI'
p15
sb.