(iglobals
MatchStat
p0
(dp1
S'group'
p2
S'H'
p3
sS'awayCode'
p4
S'SUI'
p5
sS'hasResults'
p6
I00
sS'when'
p7
V21 June 16:00
p8
sS'number'
p9
I31
sS'homeWiki'
p10
V:CHI: **Maxwell Jones** (Chile)
p11
sS'awayWiki'
p12
V:SUI: **Arthur Kleinman** (Switzerland)
p13
sS'awayName'
p14
S'Switzerland'
p15
sS'homeName'
p16
S'Chile'
p17
sS'homeCode'
p18
S'CHI'
p19
sb.