(iglobals
MatchStat
p0
(dp1
S'group'
p2
S'D'
p3
sS'awayCode'
p4
S'SRB'
p5
sS'hasResults'
p6
I00
sS'when'
p7
V18 June 13:30
p8
sS'number'
p9
I21
sS'awayName'
p10
S'Serbia'
p11
sS'homeName'
p12
S'Germany'
p13
sS'homeCode'
p14
S'GER'
p15
sb.