(iglobals
MatchStat
p0
(dp1
S'group'
p2
S'A'
p3
sS'awayCode'
p4
S'URU'
p5
sS'hasResults'
p6
I00
sS'when'
p7
S'22 June - 16:00'
p8
sS'number'
p9
I33
sS'homeWiki'
p10
V:MEX: **Sue** (Mexico)
p11
sS'awayWiki'
p12
V:URU: **AJ** (Uruguay)
p13
sS'awayName'
p14
S'Uruguay'
p15
sS'homeName'
p16
S'Mexico'
p17
sS'homeCode'
p18
S'MEX'
p19
sb.