(iglobals
MatchStat
p0
(dp1
S'group'
p2
S'D'
p3
sS'awayCode'
p4
S'AUS'
p5
sS'hasResults'
p6
I00
sS'when'
p7
V13 June 20:30
p8
sS'number'
p9
I7
sS'homeWiki'
p10
V:GER: **John Nemiah** (Germany)
p11
sS'awayWiki'
p12
V:AUS: **Sir Aubrey Lewis** (Australia)
p13
sS'awayName'
p14
S'Australia'
p15
sS'homeName'
p16
S'Germany'
p17
sS'homeCode'
p18
S'GER'
p19
sb.