(iglobals
MatchStat
p0
(dp1
S'group'
p2
S'F'
p3
sS'awayCode'
p4
S'PAR'
p5
sS'hasResults'
p6
I01
sS'awayCards'
p7
(I1
I0
I0
I1
tp8
sS'when'
p9
V14 June 20:30
p10
sS'number'
p11
I11
sS'awayGoals'
p12
(lp13
I39
asS'homeGoals'
p14
(lp15
I63
asS'awayName'
p16
S'Paraguay'
p17
sS'homeName'
p18
S'Italy'
p19
sS'homeCode'
p20
S'ITA'
p21
sS'homeCards'
p22
(I1
I0
I0
I1
tp23
sS'goalsCode'
p24
(lp25
(I39
VPAR
p26
tp27
a(I63
VITA
p28
tp29
asb.