(iglobals
MatchStat
p0
(dp1
S'group'
p2
S'F'
p3
sS'awayCode'
p4
S'PAR'
p5
sS'hasResults'
p6
I01
sS'awayCards'
p7
(lp8
I1
aI0
aI1
asS'when'
p9
S'14 June - 20:30'
p10
sS'number'
p11
I11
sS'awayGoals'
p12
(lp13
I39
asS'homeWiki'
p14
V:ITA: **Rudy** (Italy)
p15
sS'awayWiki'
p16
V:PAR: **Martine** (Paraguay)
p17
sS'awayName'
p18
S'Paraguay'
p19
sS'homeName'
p20
S'Italy'
p21
sS'goals'
p22
(lp23
(I63
g15
tp24
a(I39
g17
tp25
asS'homeGoals'
p26
(lp27
I63
asS'homeCode'
p28
S'ITA'
p29
sS'homeCards'
p30
(lp31
I1
aI0
aI1
asb.