(iglobals
MatchStat
p0
(dp1
S'group'
p2
S'D'
p3
sS'awayCode'
p4
S'SRB'
p5
sS'hasResults'
p6
I01
sS'awayCards'
p7
(I2
I0
I0
I2
tp8
sS'when'
p9
V23 June 20:30
p10
sS'number'
p11
I40
sS'awayGoals'
p12
(lp13
I84
asS'homeGoals'
p14
(lp15
I69
aI73
asS'awayName'
p16
S'Serbia'
p17
sS'homeName'
p18
S'Australia'
p19
sS'homeCode'
p20
S'AUS'
p21
sS'homeCards'
p22
(I3
I0
I0
I3
tp23
sS'goalsCode'
p24
(lp25
(I69
VAUS
p26
tp27
a(I73
VAUS
p28
tp29
a(I84
VSRB
p30
tp31
asb.