(iglobals
MatchStat
p0
(dp1
S'group'
p2
VRound of 16
p3
sS'awayCode'
p4
S'ENG'
p5
sS'hasResults'
p6
I01
sS'awayCards'
p7
(I1
I0
I0
I1
tp8
sS'when'
p9
V27 June 16:00
p10
sS'number'
p11
I51
sS'awayGoals'
p12
(lp13
I37
asS'homeGoals'
p14
(lp15
I20
aI32
aI67
aI70
asS'awayName'
p16
S'England'
p17
sS'homeName'
p18
S'Germany'
p19
sS'homeCode'
p20
S'GER'
p21
sS'homeCards'
p22
(I1
I0
I0
I1
tp23
sS'goalsCode'
p24
(lp25
(I20
VGER
p26
tp27
a(I32
VGER
p28
tp29
a(I37
VENG
p30
tp31
a(I67
VGER
p32
tp33
a(I70
VGER
p34
tp35
asb.