(iglobals
MatchStat
p0
(dp1
S'group'
p2
S'A'
p3
sS'awayCode'
p4
S'MEX'
p5
sS'hasResults'
p6
I01
sS'awayCards'
p7
(I2
I0
I0
I2
tp8
sS'when'
p9
V11 June 16:00
p10
sS'number'
p11
I1
sS'awayGoals'
p12
(lp13
I79
asS'homeWiki'
p14
V:RSA: **Wendy** (South Africa)
p15
sS'awayWiki'
p16
V:MEX: **Olina H.** (Mexico)
p17
sS'awayName'
p18
S'Mexico'
p19
sS'homeName'
p20
S'South Africa'
p21
sS'goals'
p22
(lp23
(I55
g15
tp24
a(I79
g17
tp25
asS'homeGoals'
p26
(lp27
I55
asS'homeCode'
p28
S'RSA'
p29
sS'homeCards'
p30
(I2
I0
I0
I2
tp31
sb.