(iglobals
MatchStat
p0
(dp1
S'group'
p2
S'B'
p3
sS'awayCode'
p4
S'KOR'
p5
sS'hasResults'
p6
I00
sS'when'
p7
V22 June 20:30
p8
sS'number'
p9
I35
sS'homeWiki'
p10
V:NGA: **Standa** (Nigeria)
p11
sS'awayWiki'
p12
V:KOR: **Vlasta** (Korea Republic)
p13
sS'awayName'
p14
S'Korea Republic'
p15
sS'homeName'
p16
S'Nigeria'
p17
sS'homeCode'
p18
S'NGA'
p19
sb.