(iglobals
MatchStat
p0
(dp1
S'group'
p2
VQuarter-finals
p3
sS'awayCode'
p4
S'BRA'
p5
sS'hasResults'
p6
I00
sS'when'
p7
V02 July 16:00
p8
sS'number'
p9
I57
sS'awayName'
p10
S'Brazil'
p11
sS'homeName'
p12
S'Netherlands'
p13
sS'homeCode'
p14
S'NED'
p15
sb.