(iglobals
MatchStat
p0
(dp1
S'group'
p2
S'B'
p3
sS'awayCode'
p4
S'KOR'
p5
sS'hasResults'
p6
I00
sS'when'
p7
V22 June 20:30
p8
sS'number'
p9
I35
sS'awayName'
p10
S'Korea Republic'
p11
sS'homeName'
p12
S'Nigeria'
p13
sS'homeCode'
p14
S'NGA'
p15
sb.