(iglobals
MatchStat
p0
(dp1
S'group'
p2
S'D'
p3
sS'awayCode'
p4
S'GER'
p5
sS'hasResults'
p6
I01
sS'awayCards'
p7
(I1
I0
I0
I1
tp8
sS'when'
p9
V23 June 20:30
p10
sS'number'
p11
I39
sS'awayGoals'
p12
(lp13
I60
asS'homeGoals'
p14
(lp15
sS'awayName'
p16
S'Germany'
p17
sS'homeName'
p18
S'Ghana'
p19
sS'homeCode'
p20
S'GHA'
p21
sS'homeCards'
p22
(I1
I0
I0
I1
tp23
sS'goalsCode'
p24
(lp25
(I60
VGER
p26
tp27
asb.