(iglobals
MatchStat
p0
(dp1
S'group'
p2
S'C'
p3
sS'awayCode'
p4
S'ENG'
p5
sS'hasResults'
p6
I00
sS'when'
p7
V23 June 16:00
p8
sS'number'
p9
I37
sS'homeWiki'
p10
V:SVN: **Eva** (Slovenia)
p11
sS'awayWiki'
p12
V:ENG: **Hanka** (England)
p13
sS'awayName'
p14
S'England'
p15
sS'homeName'
p16
S'Slovenia'
p17
sS'homeCode'
p18
S'SVN'
p19
sb.