(iglobals
MatchStat
p0
(dp1
S'group'
p2
S'B'
p3
sS'awayCode'
p4
S'NGA'
p5
sS'hasResults'
p6
I01
sS'awayCards'
p7
(I1
I0
I1
I5
tp8
sS'when'
p9
V17 June 16:00
p10
sS'number'
p11
I19
sS'awayGoals'
p12
(lp13
I16
asS'homeGoals'
p14
(lp15
I44
aI71
asS'awayName'
p16
S'Nigeria'
p17
sS'homeName'
p18
S'Greece'
p19
sS'homeCode'
p20
S'GRE'
p21
sS'homeCards'
p22
(I3
I0
I0
I3
tp23
sS'goalsCode'
p24
(lp25
(I16
VNGA
p26
tp27
a(I44
VGRE
p28
tp29
a(I71
VGRE
p30
tp31
asb.