(iglobals
MatchStat
p0
(dp1
S'group'
p2
S'F'
p3
sS'awayCode'
p4
S'ITA'
p5
sS'hasResults'
p6
I00
sS'when'
p7
V24 June 16:00
p8
sS'number'
p9
I41
sS'awayName'
p10
S'Italy'
p11
sS'homeName'
p12
S'Slovakia'
p13
sS'homeCode'
p14
S'SVK'
p15
sb.