(iglobals
MatchStat
p0
(dp1
S'group'
p2
S'C'
p3
sS'awayCode'
p4
S'USA'
p5
sS'hasResults'
p6
I01
sS'awayCards'
p7
(I1
I0
I0
I1
tp8
sS'when'
p9
V18 June 16:00
p10
sS'number'
p11
I22
sS'awayGoals'
p12
(lp13
I48
aI82
asS'homeGoals'
p14
(lp15
I13
aI42
asS'awayName'
p16
S'USA'
p17
sS'homeName'
p18
S'Slovenia'
p19
sS'homeCode'
p20
S'SVN'
p21
sS'homeCards'
p22
(I4
I0
I0
I4
tp23
sS'goalsCode'
p24
(lp25
(I13
VSVN
p26
tp27
a(I42
VSVN
p28
tp29
a(I48
VUSA
p30
tp31
a(I82
VUSA
p32
tp33
asb.