(iglobals
MatchStat
p0
(dp1
S'group'
p2
VQuarter-finals
p3
sS'awayCode'
p4
S'BRA'
p5
sS'hasResults'
p6
I01
sS'awayCards'
p7
(I1
I0
I1
I5
tp8
sS'when'
p9
V02 July 16:00
p10
sS'number'
p11
I57
sS'awayGoals'
p12
(lp13
I10
asS'homeGoals'
p14
(lp15
I53
aI68
asS'awayName'
p16
S'Brazil'
p17
sS'homeName'
p18
S'Netherlands'
p19
sS'homeCode'
p20
S'NED'
p21
sS'homeCards'
p22
(I4
I0
I0
I4
tp23
sS'goalsCode'
p24
(lp25
(I10
VBRA
p26
tp27
a(I53
S'NED'
p28
tp29
a(I68
VNED
p30
tp31
asb.