(iglobals
MatchStat
p0
(dp1
S'group'
p2
S'E'
p3
sS'awayCode'
p4
S'DEN'
p5
sS'hasResults'
p6
I01
sS'awayCards'
p7
(I2
I0
I0
I2
tp8
sS'when'
p9
V19 June 20:30
p10
sS'number'
p11
I26
sS'awayGoals'
p12
(lp13
I33
aI61
asS'homeGoals'
p14
(lp15
I10
asS'awayName'
p16
S'Denmark'
p17
sS'homeName'
p18
S'Cameroon'
p19
sS'homeCode'
p20
S'CMR'
p21
sS'homeCards'
p22
(I2
I0
I0
I2
tp23
sS'goalsCode'
p24
(lp25
(I10
VCMR
p26
tp27
a(I33
VDEN
p28
tp29
a(I61
VDEN
p30
tp31
asb.