(iglobals
MatchStat
p0
(dp1
S'group'
p2
S'F'
p3
sS'awayCode'
p4
S'PAR'
p5
sS'hasResults'
p6
I01
sS'awayCards'
p7
(I1
I0
I0
I1
tp8
sS'when'
p9
V14 June 20:30
p10
sS'number'
p11
I11
sS'awayGoals'
p12
(lp13
I39
asS'homeWiki'
p14
V:ITA: **Jana V.** (Italy)
p15
sS'awayWiki'
p16
V:PAR: **Jana L.** (Paraguay)
p17
sS'awayName'
p18
S'Paraguay'
p19
sS'homeName'
p20
S'Italy'
p21
sS'goals'
p22
(lp23
(I39
g17
tp24
a(I63
g15
tp25
asS'homeGoals'
p26
(lp27
I63
asS'homeCode'
p28
S'ITA'
p29
sS'homeCards'
p30
(I1
I0
I0
I1
tp31
sb.