(iglobals
MatchStat
p0
(dp1
S'group'
p2
VRound of 16
p3
sS'awayCode'
p4
S'SVK'
p5
sS'hasResults'
p6
I00
sS'when'
p7
V28 June 16:00
p8
sS'number'
p9
I53
sS'awayName'
p10
S'Slovakia'
p11
sS'homeName'
p12
S'Netherlands'
p13
sS'homeCode'
p14
S'NED'
p15
sb.