(iglobals
MatchStat
p0
(dp1
S'group'
p2
S'F'
p3
sS'awayCode'
p4
S'NZL'
p5
sS'hasResults'
p6
I01
sS'awayCards'
p7
(I1
I0
I0
I1
tp8
sS'when'
p9
V24 June 16:00
p10
sS'number'
p11
I42
sS'awayGoals'
p12
(lp13
sS'homeGoals'
p14
(lp15
sS'awayName'
p16
S'New Zealand'
p17
sS'homeName'
p18
S'Paraguay'
p19
sS'homeCode'
p20
S'PAR'
p21
sS'homeCards'
p22
(I2
I0
I0
I2
tp23
sS'goalsCode'
p24
(lp25
sb.