(iglobals
MatchStat
p0
(dp1
S'group'
p2
S'H'
p3
sS'awayCode'
p4
S'SUI'
p5
sS'hasResults'
p6
I00
sS'when'
p7
S'16 June - 16:00'
p8
sS'number'
p9
I16
sS'homeWiki'
p10
V:ESP: **Miroslav** (Spain)
p11
sS'awayWiki'
p12
V:SUI: **Jaroslava** (Switzerland)
p13
sS'awayName'
p14
S'Switzerland'
p15
sS'homeName'
p16
S'Spain'
p17
sS'homeCode'
p18
S'ESP'
p19
sb.