(iglobals
MatchStat
p0
(dp1
S'group'
p2
S'B'
p3
sS'awayCode'
p4
S'KOR'
p5
sS'hasResults'
p6
I01
sS'awayCards'
p7
(I2
I0
I0
I2
tp8
sS'when'
p9
V17 June 13:30
p10
sS'number'
p11
I20
sS'awayGoals'
p12
(lp13
I45
asS'homeGoals'
p14
(lp15
I17
aI33
aI76
aI80
asS'awayName'
p16
S'Korea Republic'
p17
sS'homeName'
p18
S'Argentina'
p19
sS'homeCode'
p20
S'ARG'
p21
sS'homeCards'
p22
(I3
I0
I0
I3
tp23
sS'goalsCode'
p24
(lp25
(I17
S'ARG'
p26
tp27
a(I33
VARG
p28
tp29
a(I45
VKOR
p30
tp31
a(I76
VARG
p32
tp33
a(I80
VARG
p34
tp35
asb.