(iglobals
MatchStat
p0
(dp1
S'group'
p2
S'B'
p3
sS'awayCode'
p4
S'NGA'
p5
sS'hasResults'
p6
I00
sS'when'
p7
S'17 June - 16:00'
p8
sS'number'
p9
I19
sS'homeWiki'
p10
V:GRE: **Anna** (Greece)
p11
sS'awayWiki'
p12
V:NGA: **Milan** (Nigeria)
p13
sS'awayName'
p14
S'Nigeria'
p15
sS'homeName'
p16
S'Greece'
p17
sS'homeCode'
p18
S'GRE'
p19
sb.