(iglobals
MatchStat
p0
(dp1
S'group'
p2
S'F'
p3
sS'awayCode'
p4
S'NZL'
p5
sS'hasResults'
p6
I01
sS'awayCards'
p7
(I3
I0
I0
I3
tp8
sS'when'
p9
V20 June 16:00
p10
sS'number'
p11
I28
sS'awayGoals'
p12
(lp13
I7
asS'homeGoals'
p14
(lp15
I29
asS'awayName'
p16
S'New Zealand'
p17
sS'homeName'
p18
S'Italy'
p19
sS'homeCode'
p20
S'ITA'
p21
sS'homeCards'
p22
(I0
I0
I0
I0
tp23
sS'goalsCode'
p24
(lp25
(I7
VNZL
p26
tp27
a(I29
VITA
p28
tp29
asb.