(iglobals
MatchStat
p0
(dp1
S'group'
p2
S'E'
p3
sS'awayCode'
p4
S'DEN'
p5
sS'hasResults'
p6
I01
sS'awayCards'
p7
(I1
I0
I0
I1
tp8
sS'when'
p9
V14 June 13:30
p10
sS'number'
p11
I9
sS'awayGoals'
p12
(lp13
sS'homeGoals'
p14
(lp15
I46
aI85
asS'awayName'
p16
S'Denmark'
p17
sS'homeName'
p18
S'Netherlands'
p19
sS'homeCode'
p20
S'NED'
p21
sS'homeCards'
p22
(I2
I0
I0
I2
tp23
sS'goalsCode'
p24
(lp25
(I46
S'NED'
p26
tp27
a(I85
VNED
p28
tp29
asb.