(iglobals
MatchStat
p0
(dp1
S'group'
p2
S'H'
p3
sS'awayCode'
p4
S'CHI'
p5
sS'hasResults'
p6
I00
sS'when'
p7
V16 June 13:30
p8
sS'number'
p9
I15
sS'homeWiki'
p10
V:HON: **Eng Seong Tan** (Honduras)
p11
sS'awayWiki'
p12
V:CHI: **Maxwell Jones** (Chile)
p13
sS'awayName'
p14
S'Chile'
p15
sS'homeName'
p16
S'Honduras'
p17
sS'homeCode'
p18
S'HON'
p19
sb.