(iglobals
MatchStat
p0
(dp1
S'group'
p2
S''
p3
sS'awayCode'
p4
S'AY/'
p5
sS'hasResults'
p6
I00
sS'when'
p7
V26 June 16:00
p8
sS'number'
p9
I49
sS'awayName'
p10
NsS'homeName'
p11
NsS'homeCode'
p12
S'ME/'
p13
sb.