(iglobals
MatchStat
p0
(dp1
S'group'
p2
VQuarter-finals
p3
sS'awayCode'
p4
S'GER'
p5
sS'hasResults'
p6
I01
sS'awayCards'
p7
(I1
I0
I0
I1
tp8
sS'when'
p9
V03 July 16:00
p10
sS'number'
p11
I59
sS'awayGoals'
p12
(lp13
I3
aI68
aI74
aI89
asS'homeGoals'
p14
(lp15
sS'awayName'
p16
S'Germany'
p17
sS'homeName'
p18
S'Argentina'
p19
sS'homeCode'
p20
S'ARG'
p21
sS'homeCards'
p22
(I2
I0
I0
I2
tp23
sS'goalsCode'
p24
(lp25
(I3
VGER
p26
tp27
a(I68
VGER
p28
tp29
a(I74
VGER
p30
tp31
a(I89
VGER
p32
tp33
asb.