(iglobals
MatchStat
p0
(dp1
S'group'
p2
VSemi-finals
p3
sS'awayCode'
p4
S'NED'
p5
sS'hasResults'
p6
I00
sS'when'
p7
V06 July 20:30
p8
sS'number'
p9
I61
sS'awayName'
p10
S'Netherlands'
p11
sS'homeName'
p12
S'Uruguay'
p13
sS'homeCode'
p14
S'URU'
p15
sb.