(iglobals
MatchStat
p0
(dp1
S'group'
p2
S'G'
p3
sS'awayCode'
p4
S'BRA'
p5
sS'hasResults'
p6
I00
sS'when'
p7
V25 June 16:00
p8
sS'number'
p9
I45
sS'awayName'
p10
S'Brazil'
p11
sS'homeName'
p12
S'Portugal'
p13
sS'homeCode'
p14
S'POR'
p15
sb.