(iglobals
MatchStat
p0
(dp1
S'group'
p2
S'A'
p3
sS'awayCode'
p4
S'URU'
p5
sS'hasResults'
p6
I00
sS'when'
p7
V22 June 16:00
p8
sS'number'
p9
I33
sS'awayName'
p10
S'Uruguay'
p11
sS'homeName'
p12
S'Mexico'
p13
sS'homeCode'
p14
S'MEX'
p15
sb.