(iglobals
MatchStat
p0
(dp1
S'group'
p2
S'A'
p3
sS'awayCode'
p4
S'URU'
p5
sS'hasResults'
p6
I01
sS'awayCards'
p7
(I0
I0
I0
I0
tp8
sS'when'
p9
V16 June 20:30
p10
sS'number'
p11
I17
sS'awayGoals'
p12
(lp13
I24
aI80
aI90
asS'homeGoals'
p14
(lp15
sS'awayName'
p16
S'Uruguay'
p17
sS'homeName'
p18
S'South Africa'
p19
sS'homeCode'
p20
S'RSA'
p21
sS'homeCards'
p22
(I2
I0
I1
I6
tp23
sS'goalsCode'
p24
(lp25
(I24
VURU
p26
tp27
a(I80
VURU
p28
tp29
a(I90
VURU
p30
tp31
asb.