(iglobals
MatchStat
p0
(dp1
S'group'
p2
S'A'
p3
sS'awayCode'
p4
S'MEX'
p5
sS'hasResults'
p6
I01
sS'awayCards'
p7
(I4
I0
I0
I4
tp8
sS'when'
p9
V17 June 20:30
p10
sS'number'
p11
I18
sS'awayGoals'
p12
(lp13
I64
aI79
asS'homeGoals'
p14
(lp15
sS'awayName'
p16
S'Mexico'
p17
sS'homeName'
p18
S'France'
p19
sS'homeCode'
p20
S'FRA'
p21
sS'homeCards'
p22
(I2
I0
I0
I2
tp23
sS'goalsCode'
p24
(lp25
(I64
VMEX
p26
tp27
a(I79
VMEX
p28
tp29
asb.