(iglobals
MatchStat
p0
(dp1
S'group'
p2
S'B'
p3
sS'awayCode'
p4
S'GRE'
p5
sS'hasResults'
p6
I01
sS'awayCards'
p7
(I1
I0
I0
I1
tp8
sS'when'
p9
V12 June 13:30
p10
sS'number'
p11
I4
sS'awayGoals'
p12
(lp13
sS'homeGoals'
p14
(lp15
I7
aI52
asS'awayName'
p16
S'Greece'
p17
sS'homeName'
p18
S'Korea Republic'
p19
sS'homeCode'
p20
S'KOR'
p21
sS'homeCards'
p22
(I0
I0
I0
I0
tp23
sS'goalsCode'
p24
(lp25
(I7
VKOR
p26
tp27
a(I52
VKOR
p28
tp29
asb.