(iglobals
MatchStat
p0
(dp1
S'group'
p2
S'F'
p3
sS'awayCode'
p4
S'NZL'
p5
sS'hasResults'
p6
I00
sS'when'
p7
V20 June 16:00
p8
sS'number'
p9
I28
sS'awayName'
p10
S'New Zealand'
p11
sS'homeName'
p12
S'Italy'
p13
sS'homeCode'
p14
S'ITA'
p15
sb.