(iglobals
MatchStat
p0
(dp1
S'group'
p2
S'E'
p3
sS'awayCode'
p4
S'CMR'
p5
sS'hasResults'
p6
I01
sS'awayCards'
p7
(lp8
I1
aI0
aI1
asS'when'
p9
S'14 June - 16:00'
p10
sS'number'
p11
I10
sS'awayGoals'
p12
(lp13
sS'homeWiki'
p14
V:JPN: **Marty** (Japan)
p15
sS'awayWiki'
p16
V:CMR: **Lisa** (Cameroon)
p17
sS'awayName'
p18
S'Cameroon'
p19
sS'homeName'
p20
S'Japan'
p21
sS'goals'
p22
(lp23
(I39
g15
tp24
asS'homeGoals'
p25
(lp26
I39
asS'homeCode'
p27
S'JPN'
p28
sS'homeCards'
p29
(lp30
I1
aI0
aI1
asb.