(iglobals
MatchStat
p0
(dp1
S'group'
p2
S'B'
p3
sS'awayCode'
p4
S'NGA'
p5
sS'hasResults'
p6
I01
sS'awayCards'
p7
(lp8
I1
aI0
aI1
asS'when'
p9
S'12 June - 16:00'
p10
sS'number'
p11
I3
sS'awayGoals'
p12
(lp13
sS'homeWiki'
p14
V:ARG: **George** (Argentina)
p15
sS'awayWiki'
p16
V:NGA: **Pippa** (Nigeria)
p17
sS'awayName'
p18
S'Nigeria'
p19
sS'homeName'
p20
S'Argentina'
p21
sS'goals'
p22
(lp23
(I6
g15
tp24
asS'homeGoals'
p25
(lp26
I6
asS'homeCode'
p27
S'ARG'
p28
sS'homeCards'
p29
(lp30
I1
aI0
aI1
asb.