(iglobals
MatchStat
p0
(dp1
S'group'
p2
S'E'
p3
sS'awayCode'
p4
S'JPN'
p5
sS'hasResults'
p6
I00
sS'when'
p7
V19 June 13:30
p8
sS'number'
p9
I25
sS'awayName'
p10
S'Japan'
p11
sS'homeName'
p12
S'Netherlands'
p13
sS'homeCode'
p14
S'NED'
p15
sb.