(iglobals
MatchStat
p0
(dp1
S'group'
p2
S'E'
p3
sS'awayCode'
p4
S'JPN'
p5
sS'hasResults'
p6
I00
sS'when'
p7
V24 June 20:30
p8
sS'number'
p9
I43
sS'awayName'
p10
S'Japan'
p11
sS'homeName'
p12
S'Denmark'
p13
sS'homeCode'
p14
S'DEN'
p15
sb.