(iglobals
MatchStat
p0
(dp1
S'group'
p2
S'D'
p3
sS'awayCode'
p4
S'GHA'
p5
sS'hasResults'
p6
I01
sS'awayCards'
p7
(lp8
I2
aI0
aI2
asS'when'
p9
V13 June 16:00
p10
sS'number'
p11
I8
sS'awayGoals'
p12
(lp13
I85
asS'homeWiki'
p14
V:SRB: **Denisa** (Serbia)
p15
sS'awayWiki'
p16
V:GHA: **Franta** (Ghana)
p17
sS'awayName'
p18
S'Ghana'
p19
sS'homeName'
p20
S'Serbia'
p21
sS'goals'
p22
(lp23
(I85
g17
tp24
asS'homeGoals'
p25
(lp26
sS'homeCode'
p27
S'SRB'
p28
sS'homeCards'
p29
(lp30
I3
aI0
aI3
asb.