(iglobals
MatchStat
p0
(dp1
S'group'
p2
S'A'
p3
sS'awayCode'
p4
S'RSA'
p5
sS'hasResults'
p6
I00
sS'when'
p7
V22 June 16:00
p8
sS'number'
p9
I34
sS'homeWiki'
p10
V:FRA: **Jana L.** (France)
p11
sS'awayWiki'
p12
V:RSA: **Wendy** (South Africa)
p13
sS'awayName'
p14
S'South Africa'
p15
sS'homeName'
p16
S'France'
p17
sS'homeCode'
p18
S'FRA'
p19
sb.