(iglobals
MatchStat
p0
(dp1
S'group'
p2
S'C'
p3
sS'awayCode'
p4
S'ENG'
p5
sS'hasResults'
p6
I01
sS'awayCards'
p7
(I1
I0
I0
I1
tp8
sS'when'
p9
V23 June 16:00
p10
sS'number'
p11
I37
sS'awayGoals'
p12
(lp13
I23
asS'homeGoals'
p14
(lp15
sS'awayName'
p16
S'England'
p17
sS'homeName'
p18
S'Slovenia'
p19
sS'homeCode'
p20
S'SVN'
p21
sS'homeCards'
p22
(I3
I0
I0
I3
tp23
sS'goalsCode'
p24
(lp25
(I23
VENG
p26
tp27
asb.