(iglobals
MatchStat
p0
(dp1
S'group'
p2
S'C'
p3
sS'awayCode'
p4
S'ALG'
p5
sS'hasResults'
p6
I00
sS'when'
p7
S'18 June - 20:30'
p8
sS'number'
p9
I23
sS'homeWiki'
p10
V:ENG: **George** (England)
p11
sS'awayWiki'
p12
V:ALG: **Martine** (Algeria)
p13
sS'awayName'
p14
S'Algeria'
p15
sS'homeName'
p16
S'England'
p17
sS'homeCode'
p18
S'ENG'
p19
sb.