(iglobals
MatchStat
p0
(dp1
S'group'
p2
S'G'
p3
sS'awayCode'
p4
S'PRK'
p5
sS'hasResults'
p6
I00
sS'when'
p7
S'15 June - 20:30'
p8
sS'number'
p9
I14
sS'homeWiki'
p10
V:BRA: **Vendulka** (Brazil)
p11
sS'awayWiki'
p12
V:PRK: **Sonia** (Korea DPR)
p13
sS'awayName'
p14
S'Korea DPR'
p15
sS'homeName'
p16
S'Brazil'
p17
sS'homeCode'
p18
S'BRA'
p19
sb.