(iglobals
MatchStat
p0
(dp1
S'group'
p2
S'H'
p3
sS'awayCode'
p4
S'HON'
p5
sS'hasResults'
p6
I00
sS'when'
p7
V25 June 20:30
p8
sS'number'
p9
I48
sS'awayName'
p10
S'Honduras'
p11
sS'homeName'
p12
S'Switzerland'
p13
sS'homeCode'
p14
S'SUI'
p15
sb.