(iglobals
MatchStat
p0
(dp1
S'group'
p2
S'H'
p3
sS'awayCode'
p4
S'HON'
p5
sS'hasResults'
p6
I00
sS'when'
p7
V21 June 20:30
p8
sS'number'
p9
I32
sS'homeWiki'
p10
V:ESP: **Jana V.** (Spain)
p11
sS'awayWiki'
p12
V:HON: **\u017du\u017eu** (Honduras)
p13
sS'awayName'
p14
S'Honduras'
p15
sS'homeName'
p16
S'Spain'
p17
sS'homeCode'
p18
S'ESP'
p19
sb.