(iglobals
MatchStat
p0
(dp1
S'group'
p2
VSemi-finals
p3
sS'awayCode'
p4
S'ESP'
p5
sS'hasResults'
p6
I01
sS'awayCards'
p7
(I0
I0
I0
I0
tp8
sS'when'
p9
V07 July 20:30
p10
sS'number'
p11
I62
sS'awayGoals'
p12
(lp13
I73
asS'homeGoals'
p14
(lp15
sS'awayName'
p16
S'Spain'
p17
sS'homeName'
p18
S'Germany'
p19
sS'homeCode'
p20
S'GER'
p21
sS'homeCards'
p22
(I0
I0
I0
I0
tp23
sS'goalsCode'
p24
(lp25
(I73
VESP
p26
tp27
asb.