(iglobals
MatchStat
p0
(dp1
S'group'
p2
S'H'
p3
sS'awayCode'
p4
S'SUI'
p5
sS'hasResults'
p6
I01
sS'awayCards'
p7
(I4
I0
I0
I4
tp8
sS'when'
p9
S'16 June - 16:00'
p10
sS'number'
p11
I16
sS'awayGoals'
p12
(lp13
I52
asS'homeWiki'
p14
V:ESP: **Katka** (Spain)
p15
sS'awayWiki'
p16
V:SUI: **Paul** (Switzerland)
p17
sS'awayName'
p18
S'Switzerland'
p19
sS'homeName'
p20
S'Spain'
p21
sS'goals'
p22
(lp23
(I52
g17
tp24
asS'homeGoals'
p25
(lp26
sS'homeCode'
p27
S'ESP'
p28
sS'homeCards'
p29
(I0
I0
I0
I0
tp30
sb.