(iglobals
MatchStat
p0
(dp1
S'group'
p2
S'G'
p3
sS'awayCode'
p4
S'PRK'
p5
sS'hasResults'
p6
I00
sS'when'
p7
S'21 June - 13:30'
p8
sS'number'
p9
I30
sS'homeWiki'
p10
V:POR: **Kate\u0159ina** (Portugal)
p11
sS'awayWiki'
p12
V:PRK: **Petra** (Korea DPR)
p13
sS'awayName'
p14
S'Korea DPR'
p15
sS'homeName'
p16
S'Portugal'
p17
sS'homeCode'
p18
S'POR'
p19
sb.