(iglobals
MatchStat
p0
(dp1
S'group'
p2
S'H'
p3
sS'awayCode'
p4
S'SUI'
p5
sS'hasResults'
p6
I00
sS'when'
p7
V21 June 16:00
p8
sS'number'
p9
I31
sS'awayName'
p10
S'Switzerland'
p11
sS'homeName'
p12
S'Chile'
p13
sS'homeCode'
p14
S'CHI'
p15
sb.