(iglobals
MatchStat
p0
(dp1
S'group'
p2
S'H'
p3
sS'awayCode'
p4
S'SUI'
p5
sS'hasResults'
p6
I01
sS'awayCards'
p7
(I3
I0
I1
I7
tp8
sS'when'
p9
V21 June 16:00
p10
sS'number'
p11
I31
sS'awayGoals'
p12
(lp13
sS'homeGoals'
p14
(lp15
I75
asS'awayName'
p16
S'Switzerland'
p17
sS'homeName'
p18
S'Chile'
p19
sS'homeCode'
p20
S'CHI'
p21
sS'homeCards'
p22
(I6
I0
I0
I6
tp23
sS'goalsCode'
p24
(lp25
(I75
VCHI
p26
tp27
asb.