(iglobals
MatchStat
p0
(dp1
S'group'
p2
S'B'
p3
sS'awayCode'
p4
S'GRE'
p5
sS'hasResults'
p6
I01
sS'awayCards'
p7
(lp8
I1
aI0
aI1
asS'when'
p9
V12 June 13:30
p10
sS'number'
p11
I4
sS'awayGoals'
p12
(lp13
sS'homeWiki'
p14
V:KOR: **Vlasta** (Korea Republic)
p15
sS'awayWiki'
p16
V:GRE: **Denisa** (Greece)
p17
sS'awayName'
p18
S'Greece'
p19
sS'homeName'
p20
S'Korea Republic'
p21
sS'goals'
p22
(lp23
(I7
g15
tp24
a(I52
g15
tp25
asS'homeGoals'
p26
(lp27
I7
aI52
asS'homeCode'
p28
S'KOR'
p29
sS'homeCards'
p30
(lp31
I0
aI0
aI0
asb.