(iglobals
MatchStat
p0
(dp1
S'group'
p2
S'H'
p3
sS'awayCode'
p4
S'CHI'
p5
sS'hasResults'
p6
I01
sS'awayCards'
p7
(I2
I0
I0
I2
tp8
sS'when'
p9
V16 June 13:30
p10
sS'number'
p11
I15
sS'awayGoals'
p12
(lp13
I34
asS'homeWiki'
p14
V:HON: **\u017du\u017eu** (Honduras)
p15
sS'awayWiki'
p16
V:CHI: **Hanka** (Chile)
p17
sS'awayName'
p18
S'Chile'
p19
sS'homeName'
p20
S'Honduras'
p21
sS'goals'
p22
(lp23
(I34
g17
tp24
asS'homeGoals'
p25
(lp26
sS'homeCode'
p27
S'HON'
p28
sS'homeCards'
p29
(I1
I0
I0
I1
tp30
sb.