(iglobals
MatchStat
p0
(dp1
S'group'
p2
S'B'
p3
sS'awayCode'
p4
S'KOR'
p5
sS'hasResults'
p6
I00
sS'when'
p7
S'17 June - 13:30'
p8
sS'number'
p9
I20
sS'homeWiki'
p10
V:ARG: **George** (Argentina)
p11
sS'awayWiki'
p12
V:KOR: **Rudy** (Korea Republic)
p13
sS'awayName'
p14
S'Korea Republic'
p15
sS'homeName'
p16
S'Argentina'
p17
sS'homeCode'
p18
S'ARG'
p19
sb.