(iglobals
MatchStat
p0
(dp1
S'group'
p2
S'C'
p3
sS'awayCode'
p4
S'ALG'
p5
sS'hasResults'
p6
I01
sS'awayCards'
p7
(I2
I1
I0
I5
tp8
sS'when'
p9
V23 June 16:00
p10
sS'number'
p11
I38
sS'awayGoals'
p12
(lp13
sS'homeGoals'
p14
(lp15
I90
asS'awayName'
p16
S'Algeria'
p17
sS'homeName'
p18
S'USA'
p19
sS'homeCode'
p20
S'USA'
p21
sS'homeCards'
p22
(I2
I0
I0
I2
tp23
sS'goalsCode'
p24
(lp25
(I90
VUSA
p26
tp27
asb.