(iglobals
MatchStat
p0
(dp1
S'group'
p2
S'H'
p3
sS'awayCode'
p4
S'CHI'
p5
sS'hasResults'
p6
I01
sS'awayCards'
p7
(I2
I0
I0
I2
tp8
sS'when'
p9
V16 June 13:30
p10
sS'number'
p11
I15
sS'awayGoals'
p12
(lp13
I34
asS'homeGoals'
p14
(lp15
sS'awayName'
p16
S'Chile'
p17
sS'homeName'
p18
S'Honduras'
p19
sS'homeCode'
p20
S'HON'
p21
sS'homeCards'
p22
(I1
I0
I0
I1
tp23
sS'goalsCode'
p24
(lp25
(I34
VCHI
p26
tp27
asb.