(iglobals
MatchStat
p0
(dp1
S'group'
p2
S'G'
p3
sS'awayCode'
p4
S'PRK'
p5
sS'hasResults'
p6
I01
sS'awayCards'
p7
(I0
I0
I0
I0
tp8
sS'when'
p9
V15 June 20:30
p10
sS'number'
p11
I14
sS'awayGoals'
p12
(lp13
I89
asS'homeWiki'
p14
V:BRA: **Dana** (Brazil)
p15
sS'awayWiki'
p16
V:PRK: **Martina** (Korea DPR)
p17
sS'awayName'
p18
S'Korea DPR'
p19
sS'homeName'
p20
S'Brazil'
p21
sS'goals'
p22
(lp23
(I55
g15
tp24
a(I72
g15
tp25
a(I89
g17
tp26
asS'homeGoals'
p27
(lp28
I55
aI72
asS'homeCode'
p29
S'BRA'
p30
sS'homeCards'
p31
(I1
I0
I0
I1
tp32
sb.