(iglobals
MatchStat
p0
(dp1
S'group'
p2
S'E'
p3
sS'awayCode'
p4
S'DEN'
p5
sS'hasResults'
p6
I00
sS'when'
p7
V19 June 20:30
p8
sS'number'
p9
I26
sS'awayName'
p10
S'Denmark'
p11
sS'homeName'
p12
S'Cameroon'
p13
sS'homeCode'
p14
S'CMR'
p15
sb.