(iglobals
MatchStat
p0
(dp1
S'group'
p2
S'A'
p3
sS'awayCode'
p4
S'FRA'
p5
sS'hasResults'
p6
I01
sS'awayCards'
p7
(I3
I0
I0
I3
tp8
sS'when'
p9
V11 June 20:30
p10
sS'number'
p11
I2
sS'awayGoals'
p12
(lp13
sS'homeWiki'
p14
V:URU: **Renata Z.** (Uruguay)
p15
sS'awayWiki'
p16
V:FRA: **Jana L.** (France)
p17
sS'awayName'
p18
S'France'
p19
sS'homeName'
p20
S'Uruguay'
p21
sS'goals'
p22
(lp23
sS'homeGoals'
p24
(lp25
sS'homeCode'
p26
S'URU'
p27
sS'homeCards'
p28
(I2
I1
I0
I4
tp29
sb.