(iglobals
MatchStat
p0
(dp1
S'group'
p2
S'A'
p3
sS'awayCode'
p4
S'FRA'
p5
sS'hasResults'
p6
I01
sS'awayCards'
p7
(I3
I0
I0
I3
tp8
sS'when'
p9
V11 June 20:30
p10
sS'number'
p11
I2
sS'awayGoals'
p12
(lp13
sS'homeGoals'
p14
(lp15
sS'awayName'
p16
S'France'
p17
sS'homeName'
p18
S'Uruguay'
p19
sS'homeCode'
p20
S'URU'
p21
sS'homeCards'
p22
(I2
I1
I0
I4
tp23
sS'goalsCode'
p24
(lp25
sb.