(iglobals
MatchStat
p0
(dp1
S'group'
p2
S'D'
p3
sS'awayCode'
p4
S'AUS'
p5
sS'hasResults'
p6
I01
sS'awayCards'
p7
(I1
I0
I1
I5
tp8
sS'when'
p9
V19 June 16:00
p10
sS'number'
p11
I24
sS'awayGoals'
p12
(lp13
I11
asS'homeGoals'
p14
(lp15
I25
asS'awayName'
p16
S'Australia'
p17
sS'homeName'
p18
S'Ghana'
p19
sS'homeCode'
p20
S'GHA'
p21
sS'homeCards'
p22
(I3
I0
I0
I3
tp23
sS'goalsCode'
p24
(lp25
(I11
VAUS
p26
tp27
a(I25
VGHA
p28
tp29
asb.