(iglobals
MatchStat
p0
(dp1
S'group'
p2
S'E'
p3
sS'awayCode'
p4
S'CMR'
p5
sS'hasResults'
p6
I01
sS'awayCards'
p7
(I1
I0
I0
I1
tp8
sS'when'
p9
V14 June 16:00
p10
sS'number'
p11
I10
sS'awayGoals'
p12
(lp13
sS'homeGoals'
p14
(lp15
I39
asS'awayName'
p16
S'Cameroon'
p17
sS'homeName'
p18
S'Japan'
p19
sS'homeCode'
p20
S'JPN'
p21
sS'homeCards'
p22
(I1
I0
I0
I1
tp23
sS'goalsCode'
p24
(lp25
(I39
VJPN
p26
tp27
asb.