(iglobals
MatchStat
p0
(dp1
S'group'
p2
S'H'
p3
sS'awayCode'
p4
S'ESP'
p5
sS'hasResults'
p6
I01
sS'awayCards'
p7
(I0
I0
I0
I0
tp8
sS'when'
p9
V25 June 20:30
p10
sS'number'
p11
I47
sS'awayGoals'
p12
(lp13
I24
aI37
asS'homeGoals'
p14
(lp15
I47
asS'awayName'
p16
S'Spain'
p17
sS'homeName'
p18
S'Chile'
p19
sS'homeCode'
p20
S'CHI'
p21
sS'homeCards'
p22
(I2
I1
I0
I4
tp23
sS'goalsCode'
p24
(lp25
(I24
VESP
p26
tp27
a(I37
VESP
p28
tp29
a(I47
VCHI
p30
tp31
asb.