(iglobals
MatchStat
p0
(dp1
S'group'
p2
S'A'
p3
sS'awayCode'
p4
S'RSA'
p5
sS'hasResults'
p6
I01
sS'awayCards'
p7
(I0
I0
I0
I0
tp8
sS'when'
p9
V22 June 16:00
p10
sS'number'
p11
I34
sS'awayGoals'
p12
(lp13
I20
aI37
asS'homeGoals'
p14
(lp15
I70
asS'awayName'
p16
S'South Africa'
p17
sS'homeName'
p18
S'France'
p19
sS'homeCode'
p20
S'FRA'
p21
sS'homeCards'
p22
(I1
I0
I1
I5
tp23
sS'goalsCode'
p24
(lp25
(I20
VRSA
p26
tp27
a(I37
VRSA
p28
tp29
a(I70
VFRA
p30
tp31
asb.