(iglobals
MatchStat
p0
(dp1
S'group'
p2
VRound of 16
p3
sS'awayCode'
p4
S'KOR'
p5
sS'hasResults'
p6
I00
sS'when'
p7
V26 June 16:00
p8
sS'number'
p9
I49
sS'awayName'
p10
S'Korea Republic'
p11
sS'homeName'
p12
S'Uruguay'
p13
sS'homeCode'
p14
S'URU'
p15
sb.