(iglobals
MatchStat
p0
(dp1
S'group'
p2
S'D'
p3
sS'awayCode'
p4
S'AUS'
p5
sS'hasResults'
p6
I01
sS'awayCards'
p7
(I3
I0
I1
I7
tp8
sS'when'
p9
V13 June 20:30
p10
sS'number'
p11
I7
sS'awayGoals'
p12
(lp13
sS'homeGoals'
p14
(lp15
I8
aI26
aI68
aI70
asS'awayName'
p16
S'Australia'
p17
sS'homeName'
p18
S'Germany'
p19
sS'homeCode'
p20
S'GER'
p21
sS'homeCards'
p22
(I2
I0
I0
I2
tp23
sS'goalsCode'
p24
(lp25
(I8
VGER
p26
tp27
a(I26
VGER
p28
tp29
a(I68
VGER
p30
tp31
a(I70
VGER
p32
tp33
asb.