(iglobals
MatchStat
p0
(dp1
S'group'
p2
S'B'
p3
sS'awayCode'
p4
S'ARG'
p5
sS'hasResults'
p6
I00
sS'when'
p7
V22 June 20:30
p8
sS'number'
p9
I36
sS'homeWiki'
p10
V:GRE: **Paul Watzlawick** (Greece)
p11
sS'awayWiki'
p12
V:ARG: **Aaron Beck** (Argentina)
p13
sS'awayName'
p14
S'Argentina'
p15
sS'homeName'
p16
S'Greece'
p17
sS'homeCode'
p18
S'GRE'
p19
sb.