(iglobals
MatchStat
p0
(dp1
S'group'
p2
S'D'
p3
sS'awayCode'
p4
S'GER'
p5
sS'hasResults'
p6
I00
sS'when'
p7
V23 June 20:30
p8
sS'number'
p9
I39
sS'awayName'
p10
S'Germany'
p11
sS'homeName'
p12
S'Ghana'
p13
sS'homeCode'
p14
S'GHA'
p15
sb.