(iglobals
MatchStat
p0
(dp1
S'group'
p2
S'D'
p3
sS'awayCode'
p4
S'AUS'
p5
sS'hasResults'
p6
I01
sS'awayCards'
p7
(I3
I0
I1
I7
tp8
sS'when'
p9
V13 June 20:30
p10
sS'number'
p11
I7
sS'awayGoals'
p12
(lp13
sS'homeWiki'
p14
V:GER: **Lenny** (Germany)
p15
sS'awayWiki'
p16
V:AUS: **Petra** (Australia)
p17
sS'awayName'
p18
S'Australia'
p19
sS'homeName'
p20
S'Germany'
p21
sS'goals'
p22
(lp23
(I8
g15
tp24
a(I26
g15
tp25
a(I68
g15
tp26
a(I70
g15
tp27
asS'homeGoals'
p28
(lp29
I8
aI26
aI68
aI70
asS'homeCode'
p30
S'GER'
p31
sS'homeCards'
p32
(I2
I0
I0
I2
tp33
sb.