(iglobals
MatchStat
p0
(dp1
S'group'
p2
S'E'
p3
sS'awayCode'
p4
S'DEN'
p5
sS'hasResults'
p6
I01
sS'awayCards'
p7
(lp8
I1
aI0
aI1
asS'when'
p9
S'14 June - 13:30'
p10
sS'number'
p11
I9
sS'awayGoals'
p12
(lp13
sS'homeWiki'
p14
V:NED: **Floris** (Netherlands)
p15
sS'awayWiki'
p16
V:DEN: **Bas** (Denmark)
p17
sS'awayName'
p18
S'Denmark'
p19
sS'homeName'
p20
S'Netherlands'
p21
sS'goals'
p22
(lp23
(I46
g15
tp24
a(I85
g15
tp25
asS'homeGoals'
p26
(lp27
I46
aI85
asS'homeCode'
p28
S'NED'
p29
sS'homeCards'
p30
(lp31
I2
aI0
aI2
asb.