(iglobals
MatchStat
p0
(dp1
S'group'
p2
S'C'
p3
sS'awayCode'
p4
S'SVN'
p5
sS'hasResults'
p6
I01
sS'awayCards'
p7
(I2
I0
I0
I2
tp8
sS'when'
p9
V13 June 13:30
p10
sS'number'
p11
I6
sS'awayGoals'
p12
(lp13
I79
asS'homeGoals'
p14
(lp15
sS'awayName'
p16
S'Slovenia'
p17
sS'homeName'
p18
S'Algeria'
p19
sS'homeCode'
p20
S'ALG'
p21
sS'homeCards'
p22
(I1
I1
I0
I4
tp23
sS'goalsCode'
p24
(lp25
(I79
VSVN
p26
tp27
asb.