(iglobals
MatchStat
p0
(dp1
S'group'
p2
S'B'
p3
sS'awayCode'
p4
S'ARG'
p5
sS'hasResults'
p6
I01
sS'awayCards'
p7
(I1
I0
I0
I1
tp8
sS'when'
p9
V22 June 20:30
p10
sS'number'
p11
I36
sS'awayGoals'
p12
(lp13
I77
aI89
asS'homeGoals'
p14
(lp15
sS'awayName'
p16
S'Argentina'
p17
sS'homeName'
p18
S'Greece'
p19
sS'homeCode'
p20
S'GRE'
p21
sS'homeCards'
p22
(I1
I0
I0
I1
tp23
sS'goalsCode'
p24
(lp25
(I77
VARG
p26
tp27
a(I89
VARG
p28
tp29
asb.