(iglobals
MatchStat
p0
(dp1
S'group'
p2
S'G'
p3
sS'awayCode'
p4
S'PRK'
p5
sS'hasResults'
p6
I01
sS'awayCards'
p7
(I0
I0
I0
I0
tp8
sS'when'
p9
V15 June 20:30
p10
sS'number'
p11
I14
sS'awayGoals'
p12
(lp13
I89
asS'homeGoals'
p14
(lp15
I55
aI72
asS'awayName'
p16
S'Korea DPR'
p17
sS'homeName'
p18
S'Brazil'
p19
sS'homeCode'
p20
S'BRA'
p21
sS'homeCards'
p22
(I1
I0
I0
I1
tp23
sS'goalsCode'
p24
(lp25
(I55
VBRA
p26
tp27
a(I72
VBRA
p28
tp29
a(I89
VPRK
p30
tp31
asb.