(iglobals
MatchStat
p0
(dp1
S'group'
p2
S'C'
p3
sS'awayCode'
p4
S'SVN'
p5
sS'hasResults'
p6
I01
sS'awayCards'
p7
(lp8
I2
aI0
aI2
asS'when'
p9
V13 June 13:30
p10
sS'number'
p11
I6
sS'awayGoals'
p12
(lp13
I79
asS'homeWiki'
p14
V:ALG: **\u017du\u017eu** (Algeria)
p15
sS'awayWiki'
p16
V:SVN: **Eva** (Slovenia)
p17
sS'awayName'
p18
S'Slovenia'
p19
sS'homeName'
p20
S'Algeria'
p21
sS'goals'
p22
(lp23
(I79
g17
tp24
asS'homeGoals'
p25
(lp26
sS'homeCode'
p27
S'ALG'
p28
sS'homeCards'
p29
(lp30
I2
aI0
aI2
asb.