(iglobals
MatchStat
p0
(dp1
S'group'
p2
S'F'
p3
sS'awayCode'
p4
S'SVK'
p5
sS'hasResults'
p6
I01
sS'awayCards'
p7
(I1
I0
I0
I1
tp8
sS'when'
p9
S'15 June - 13:30'
p10
sS'number'
p11
I12
sS'awayGoals'
p12
(lp13
I50
asS'homeWiki'
p14
V:NZL: **George** (New Zealand)
p15
sS'awayWiki'
p16
V:SVK: **Viktor** (Slovakia)
p17
sS'awayName'
p18
S'Slovakia'
p19
sS'homeName'
p20
S'New Zealand'
p21
sS'goals'
p22
(lp23
(I50
g17
tp24
a(I90
g15
tp25
asS'homeGoals'
p26
(lp27
I90
asS'homeCode'
p28
S'NZL'
p29
sS'homeCards'
p30
(I2
I0
I0
I2
tp31
sb.