(iglobals
MatchStat
p0
(dp1
S'group'
p2
S'F'
p3
sS'awayCode'
p4
S'ITA'
p5
sS'hasResults'
p6
I01
sS'awayCards'
p7
(I4
I0
I0
I4
tp8
sS'when'
p9
V24 June 16:00
p10
sS'number'
p11
I41
sS'awayGoals'
p12
(lp13
I81
aI90
asS'homeGoals'
p14
(lp15
I25
aI73
aI89
asS'awayName'
p16
S'Italy'
p17
sS'homeName'
p18
S'Slovakia'
p19
sS'homeCode'
p20
S'SVK'
p21
sS'homeCards'
p22
(I4
I0
I0
I4
tp23
sS'goalsCode'
p24
(lp25
(I25
VSVK
p26
tp27
a(I73
VSVK
p28
tp29
a(I81
VITA
p30
tp31
a(I89
VSVK
p32
tp33
a(I90
VITA
p34
tp35
asb.