(iglobals
MatchStat
p0
(dp1
S'group'
p2
VQuarter-finals
p3
sS'awayCode'
p4
S'ESP'
p5
sS'hasResults'
p6
I01
sS'awayCards'
p7
(I2
I0
I0
I2
tp8
sS'when'
p9
V03 July 20:30
p10
sS'number'
p11
I60
sS'awayGoals'
p12
(lp13
I83
asS'homeGoals'
p14
(lp15
sS'awayName'
p16
S'Spain'
p17
sS'homeName'
p18
S'Paraguay'
p19
sS'homeCode'
p20
S'PAR'
p21
sS'homeCards'
p22
(I4
I0
I0
I4
tp23
sS'goalsCode'
p24
(lp25
(I83
VESP
p26
tp27
asb.