(iglobals
MatchStat
p0
(dp1
S'group'
p2
S'F'
p3
sS'awayCode'
p4
S'ITA'
p5
sS'hasResults'
p6
I00
sS'when'
p7
S'24 June - 16:00'
p8
sS'number'
p9
I41
sS'homeWiki'
p10
V:SVK: **Viktor** (Slovakia)
p11
sS'awayWiki'
p12
V:ITA: **Rudy** (Italy)
p13
sS'awayName'
p14
S'Italy'
p15
sS'homeName'
p16
S'Slovakia'
p17
sS'homeCode'
p18
S'SVK'
p19
sb.