(iglobals
MatchStat
p0
(dp1
S'group'
p2
S'A'
p3
sS'awayCode'
p4
S'MEX'
p5
sS'hasResults'
p6
I00
sS'when'
p7
V17 June 20:30
p8
sS'number'
p9
I18
sS'homeWiki'
p10
V:FRA: **Niall McLaren** (France)
p11
sS'awayWiki'
p12
V:MEX: **Karl Leonhard** (Mexico)
p13
sS'awayName'
p14
S'Mexico'
p15
sS'homeName'
p16
S'France'
p17
sS'homeCode'
p18
S'FRA'
p19
sb.