(iglobals
MatchStat
p0
(dp1
S'group'
p2
S'D'
p3
sS'awayCode'
p4
S'AUS'
p5
sS'hasResults'
p6
I00
sS'when'
p7
S'19 June - 16:00'
p8
sS'number'
p9
I24
sS'homeWiki'
p10
V:GHA: **Franti\u0161ek** (Ghana)
p11
sS'awayWiki'
p12
V:AUS: **Jan** (Australia)
p13
sS'awayName'
p14
S'Australia'
p15
sS'homeName'
p16
S'Ghana'
p17
sS'homeCode'
p18
S'GHA'
p19
sb.