(iglobals
MatchStat
p0
(dp1
S'group'
p2
S'D'
p3
sS'awayCode'
p4
S'GHA'
p5
sS'hasResults'
p6
I01
sS'awayCards'
p7
(I2
I0
I0
I2
tp8
sS'when'
p9
V13 June 16:00
p10
sS'number'
p11
I8
sS'awayGoals'
p12
(lp13
I85
asS'homeGoals'
p14
(lp15
sS'awayName'
p16
S'Ghana'
p17
sS'homeName'
p18
S'Serbia'
p19
sS'homeCode'
p20
S'SRB'
p21
sS'homeCards'
p22
(I2
I1
I0
I4
tp23
sS'goalsCode'
p24
(lp25
(I85
VGHA
p26
tp27
asb.