(iglobals
MatchStat
p0
(dp1
S'group'
p2
S'F'
p3
sS'awayCode'
p4
S'PAR'
p5
sS'hasResults'
p6
I00
sS'when'
p7
V20 June 13:30
p8
sS'number'
p9
I27
sS'awayName'
p10
S'Paraguay'
p11
sS'homeName'
p12
S'Slovakia'
p13
sS'homeCode'
p14
S'SVK'
p15
sb.