(iglobals
MatchStat
p0
(dp1
S'group'
p2
VSemi-finals
p3
sS'awayCode'
p4
S'NED'
p5
sS'hasResults'
p6
I01
sS'awayCards'
p7
(I3
I0
I0
I3
tp8
sS'when'
p9
V06 July 20:30
p10
sS'number'
p11
I61
sS'awayGoals'
p12
(lp13
I18
aI70
aI73
asS'homeGoals'
p14
(lp15
I41
aI90
asS'awayName'
p16
S'Netherlands'
p17
sS'homeName'
p18
S'Uruguay'
p19
sS'homeCode'
p20
S'URU'
p21
sS'homeCards'
p22
(I2
I0
I0
I2
tp23
sS'goalsCode'
p24
(lp25
(I18
VNED
p26
tp27
a(I41
VURU
p28
tp29
a(I70
VNED
p30
tp31
a(I73
VNED
p32
tp33
a(I90
VURU
p34
tp35
asb.