(iglobals
MatchStat
p0
(dp1
S'group'
p2
S'C'
p3
sS'awayCode'
p4
S'USA'
p5
sS'hasResults'
p6
I00
sS'when'
p7
V18 June 16:00
p8
sS'number'
p9
I22
sS'awayName'
p10
S'USA'
p11
sS'homeName'
p12
S'Slovenia'
p13
sS'homeCode'
p14
S'SVN'
p15
sb.