(iglobals
MatchStat
p0
(dp1
S'group'
p2
S'A'
p3
sS'awayCode'
p4
S'MEX'
p5
sS'hasResults'
p6
I00
sS'when'
p7
V11 June 16:00
p8
sS'number'
p9
I1
sS'homeWiki'
p10
V:RSA: **Wendy** (South Africa)
p11
sS'awayWiki'
p12
V:MEX: **Olina H.** (Mexico)
p13
sS'awayName'
p14
S'Mexico'
p15
sS'homeName'
p16
S'South Africa'
p17
sS'homeCode'
p18
S'RSA'
p19
sb.