(iglobals
MatchStat
p0
(dp1
S'group'
p2
S'C'
p3
sS'awayCode'
p4
S'ALG'
p5
sS'hasResults'
p6
I00
sS'when'
p7
V23 June 16:00
p8
sS'number'
p9
I38
sS'awayName'
p10
S'Algeria'
p11
sS'homeName'
p12
S'USA'
p13
sS'homeCode'
p14
S'USA'
p15
sb.