(iglobals
MatchStat
p0
(dp1
S'group'
p2
S'D'
p3
sS'awayCode'
p4
S'SRB'
p5
sS'hasResults'
p6
I01
sS'awayCards'
p7
(I4
I0
I0
I4
tp8
sS'when'
p9
V18 June 13:30
p10
sS'number'
p11
I21
sS'awayGoals'
p12
(lp13
I38
asS'homeGoals'
p14
(lp15
sS'awayName'
p16
S'Serbia'
p17
sS'homeName'
p18
S'Germany'
p19
sS'homeCode'
p20
S'GER'
p21
sS'homeCards'
p22
(I3
I1
I0
I5
tp23
sS'goalsCode'
p24
(lp25
(I38
VSRB
p26
tp27
asb.