(iglobals
MatchStat
p0
(dp1
S'group'
p2
VRound of 16
p3
sS'awayCode'
p4
S'CHI'
p5
sS'hasResults'
p6
I01
sS'awayCards'
p7
(I3
I0
I0
I3
tp8
sS'when'
p9
V28 June 20:30
p10
sS'number'
p11
I54
sS'awayGoals'
p12
(lp13
sS'homeGoals'
p14
(lp15
I35
aI38
aI59
asS'awayName'
p16
S'Chile'
p17
sS'homeName'
p18
S'Brazil'
p19
sS'homeCode'
p20
S'BRA'
p21
sS'homeCards'
p22
(I2
I0
I0
I2
tp23
sS'goalsCode'
p24
(lp25
(I35
VBRA
p26
tp27
a(I38
VBRA
p28
tp29
a(I59
VBRA
p30
tp31
asb.