(iglobals
MatchStat
p0
(dp1
S'group'
p2
S'F'
p3
sS'awayCode'
p4
S'PAR'
p5
sS'hasResults'
p6
I01
sS'awayCards'
p7
(I1
I0
I0
I1
tp8
sS'when'
p9
V20 June 13:30
p10
sS'number'
p11
I27
sS'awayGoals'
p12
(lp13
I27
aI86
asS'homeGoals'
p14
(lp15
sS'awayName'
p16
S'Paraguay'
p17
sS'homeName'
p18
S'Slovakia'
p19
sS'homeCode'
p20
S'SVK'
p21
sS'homeCards'
p22
(I3
I0
I0
I3
tp23
sS'goalsCode'
p24
(lp25
(I27
VPAR
p26
tp27
a(I86
VPAR
p28
tp29
asb.