(iglobals
MatchStat
p0
(dp1
S'group'
p2
S'E'
p3
sS'awayCode'
p4
S'NED'
p5
sS'hasResults'
p6
I01
sS'awayCards'
p7
(I3
I0
I0
I3
tp8
sS'when'
p9
V24 June 20:30
p10
sS'number'
p11
I44
sS'awayGoals'
p12
(lp13
I36
aI83
asS'homeGoals'
p14
(lp15
I65
asS'awayName'
p16
S'Netherlands'
p17
sS'homeName'
p18
S'Cameroon'
p19
sS'homeCode'
p20
S'CMR'
p21
sS'homeCards'
p22
(I2
I0
I0
I2
tp23
sS'goalsCode'
p24
(lp25
(I36
VNED
p26
tp27
a(I65
VCMR
p28
tp29
a(I83
VNED
p30
tp31
asb.