(iglobals
MatchStat
p0
(dp1
S'group'
p2
S'B'
p3
sS'awayCode'
p4
S'KOR'
p5
sS'hasResults'
p6
I01
sS'awayCards'
p7
(I1
I0
I0
I1
tp8
sS'when'
p9
V22 June 20:30
p10
sS'number'
p11
I35
sS'awayGoals'
p12
(lp13
I38
aI49
asS'homeGoals'
p14
(lp15
I12
aI69
asS'awayName'
p16
S'Korea Republic'
p17
sS'homeName'
p18
S'Nigeria'
p19
sS'homeCode'
p20
S'NGA'
p21
sS'homeCards'
p22
(I3
I0
I0
I3
tp23
sS'goalsCode'
p24
(lp25
(I12
VNGA
p26
tp27
a(I38
VKOR
p28
tp29
a(I49
VKOR
p30
tp31
a(I69
VNGA
p32
tp33
asb.