(iglobals
MatchStat
p0
(dp1
S'group'
p2
VQuarter-finals
p3
sS'awayCode'
p4
S'GHA'
p5
sS'hasResults'
p6
I01
sS'awayCards'
p7
(I3
I0
I0
I3
tp8
sS'when'
p9
V02 July 20:30
p10
sS'number'
p11
I58
sS'awayGoals'
p12
(lp13
I45
asS'homeGoals'
p14
(lp15
I55
asS'awayName'
p16
S'Ghana'
p17
sS'homeName'
p18
S'Uruguay'
p19
sS'homeCode'
p20
S'URU'
p21
sS'homeCards'
p22
(I3
I0
I1
I7
tp23
sS'goalsCode'
p24
(lp25
(I45
VGHA
p26
tp27
a(I55
VURU
p28
tp29
asb.