(iglobals
MatchStat
p0
(dp1
S'group'
p2
VFinal
p3
sS'awayCode'
p4
S'ESP'
p5
sS'hasResults'
p6
I00
sS'when'
p7
V11 July 20:30
p8
sS'number'
p9
I64
sS'awayName'
p10
S'Spain'
p11
sS'homeName'
p12
S'Netherlands'
p13
sS'homeCode'
p14
S'NED'
p15
sb.