(iglobals
MatchStat
p0
(dp1
S'group'
p2
VRound of 16
p3
sS'awayCode'
p4
S'ENG'
p5
sS'hasResults'
p6
I00
sS'when'
p7
V27 June 16:00
p8
sS'number'
p9
I51
sS'awayName'
p10
S'England'
p11
sS'homeName'
p12
S'Germany'
p13
sS'homeCode'
p14
S'GER'
p15
sb.