(iglobals
MatchStat
p0
(dp1
S'group'
p2
S'A'
p3
sS'awayCode'
p4
S'URU'
p5
sS'hasResults'
p6
I01
sS'awayCards'
p7
(I1
I0
I0
I1
tp8
sS'when'
p9
V22 June 16:00
p10
sS'number'
p11
I33
sS'awayGoals'
p12
(lp13
I43
asS'homeGoals'
p14
(lp15
sS'awayName'
p16
S'Uruguay'
p17
sS'homeName'
p18
S'Mexico'
p19
sS'homeCode'
p20
S'MEX'
p21
sS'homeCards'
p22
(I2
I0
I0
I2
tp23
sS'goalsCode'
p24
(lp25
(I43
VURU
p26
tp27
asb.