(iglobals
MatchStat
p0
(dp1
S'group'
p2
S'F'
p3
sS'awayCode'
p4
S'NZL'
p5
sS'hasResults'
p6
I00
sS'when'
p7
V20 June 16:00
p8
sS'number'
p9
I28
sS'homeWiki'
p10
V:ITA: **Jana V.** (Italy)
p11
sS'awayWiki'
p12
V:NZL: **Martin** (New Zealand)
p13
sS'awayName'
p14
S'New Zealand'
p15
sS'homeName'
p16
S'Italy'
p17
sS'homeCode'
p18
S'ITA'
p19
sb.