(iglobals
MatchStat
p0
(dp1
S'group'
p2
VRound of 16
p3
sS'awayCode'
p4
S'CHI'
p5
sS'hasResults'
p6
I00
sS'when'
p7
V28 June 20:30
p8
sS'number'
p9
I54
sS'awayName'
p10
S'Chile'
p11
sS'homeName'
p12
S'Brazil'
p13
sS'homeCode'
p14
S'BRA'
p15
sb.