(iglobals
MatchStat
p0
(dp1
S'group'
p2
S'F'
p3
sS'awayCode'
p4
S'PAR'
p5
sS'hasResults'
p6
I00
sS'when'
p7
V20 June 13:30
p8
sS'number'
p9
I27
sS'homeWiki'
p10
V:SVK: **John Bowlby** (Slovakia)
p11
sS'awayWiki'
p12
V:PAR: **Sigmund Freud** (Paraguay)
p13
sS'awayName'
p14
S'Paraguay'
p15
sS'homeName'
p16
S'Slovakia'
p17
sS'homeCode'
p18
S'SVK'
p19
sb.