(iglobals
MatchStat
p0
(dp1
S'group'
p2
S'E'
p3
sS'awayCode'
p4
S'JPN'
p5
sS'hasResults'
p6
I01
sS'awayCards'
p7
(I0
I0
I0
I0
tp8
sS'when'
p9
V19 June 13:30
p10
sS'number'
p11
I25
sS'awayGoals'
p12
(lp13
sS'homeGoals'
p14
(lp15
I53
asS'awayName'
p16
S'Japan'
p17
sS'homeName'
p18
S'Netherlands'
p19
sS'homeCode'
p20
S'NED'
p21
sS'homeCards'
p22
(I1
I0
I0
I1
tp23
sS'goalsCode'
p24
(lp25
(I53
VNED
p26
tp27
asb.