(iglobals
MatchStat
p0
(dp1
S'group'
p2
S'B'
p3
sS'awayCode'
p4
S'ARG'
p5
sS'hasResults'
p6
I00
sS'when'
p7
V22 June 20:30
p8
sS'number'
p9
I36
sS'awayName'
p10
S'Argentina'
p11
sS'homeName'
p12
S'Greece'
p13
sS'homeCode'
p14
S'GRE'
p15
sb.