(iglobals
MatchStat
p0
(dp1
S'group'
p2
S'E'
p3
sS'awayCode'
p4
S'JPN'
p5
sS'hasResults'
p6
I00
sS'when'
p7
V24 June 20:30
p8
sS'number'
p9
I43
sS'homeWiki'
p10
V:DEN: **John Batty Tuke** (Denmark)
p11
sS'awayWiki'
p12
V:JPN: **Ian Oswald** (Japan)
p13
sS'awayName'
p14
S'Japan'
p15
sS'homeName'
p16
S'Denmark'
p17
sS'homeCode'
p18
S'DEN'
p19
sb.