(iglobals
MatchStat
p0
(dp1
S'group'
p2
S'H'
p3
sS'awayCode'
p4
S'HON'
p5
sS'hasResults'
p6
I01
sS'awayCards'
p7
(I2
I0
I0
I2
tp8
sS'when'
p9
V21 June 20:30
p10
sS'number'
p11
I32
sS'awayGoals'
p12
(lp13
sS'homeGoals'
p14
(lp15
I17
aI51
asS'awayName'
p16
S'Honduras'
p17
sS'homeName'
p18
S'Spain'
p19
sS'homeCode'
p20
S'ESP'
p21
sS'homeCards'
p22
(I0
I0
I0
I0
tp23
sS'goalsCode'
p24
(lp25
(I17
VESP
p26
tp27
a(I51
VESP
p28
tp29
asb.