(iglobals
MatchStat
p0
(dp1
S'group'
p2
S'G'
p3
sS'awayCode'
p4
S'BRA'
p5
sS'hasResults'
p6
I00
sS'when'
p7
S'25 June - 16:00'
p8
sS'number'
p9
I45
sS'homeWiki'
p10
V:POR: **Kate\u0159ina** (Portugal)
p11
sS'awayWiki'
p12
V:BRA: **Jana** (Brazil)
p13
sS'awayName'
p14
S'Brazil'
p15
sS'homeName'
p16
S'Portugal'
p17
sS'homeCode'
p18
S'POR'
p19
sb.