(iglobals
MatchStat
p0
(dp1
S'group'
p2
S'A'
p3
sS'awayCode'
p4
S'FRA'
p5
sS'hasResults'
p6
I00
sS'when'
p7
V11 June 20:30
p8
sS'number'
p9
I2
sS'homeWiki'
p10
V:URU: **Renata Z.** (Uruguay)
p11
sS'awayWiki'
p12
V:FRA: **Jana L.** (France)
p13
sS'awayName'
p14
S'France'
p15
sS'homeName'
p16
S'Uruguay'
p17
sS'homeCode'
p18
S'URU'
p19
sb.