(iglobals
MatchStat
p0
(dp1
S'group'
p2
S'E'
p3
sS'awayCode'
p4
S'NED'
p5
sS'hasResults'
p6
I00
sS'when'
p7
S'24 June - 20:30'
p8
sS'number'
p9
I44
sS'homeWiki'
p10
V:CMR: **Lisa** (Cameroon)
p11
sS'awayWiki'
p12
V:NED: **Floris** (Netherlands)
p13
sS'awayName'
p14
S'Netherlands'
p15
sS'homeName'
p16
S'Cameroon'
p17
sS'homeCode'
p18
S'CMR'
p19
sb.