(iglobals
MatchStat
p0
(dp1
S'group'
p2
S'C'
p3
sS'awayCode'
p4
S'SVN'
p5
sS'hasResults'
p6
I01
sS'awayCards'
p7
(I2
I0
I0
I2
tp8
sS'when'
p9
S'13 June - 13:30'
p10
sS'number'
p11
I6
sS'awayGoals'
p12
(lp13
I79
asS'homeWiki'
p14
V:ALG: **Martine** (Algeria)
p15
sS'awayWiki'
p16
V:SVN: **Jens** (Slovenia)
p17
sS'awayName'
p18
S'Slovenia'
p19
sS'homeName'
p20
S'Algeria'
p21
sS'goals'
p22
(lp23
(I79
g17
tp24
asS'homeGoals'
p25
(lp26
sS'homeCode'
p27
S'ALG'
p28
sS'homeCards'
p29
(I1
I1
I0
I3
tp30
sb.