(iglobals
MatchStat
p0
(dp1
S'group'
p2
VRound of 16
p3
sS'awayCode'
p4
S'SVK'
p5
sS'hasResults'
p6
I01
sS'awayCards'
p7
(I3
I0
I0
I3
tp8
sS'when'
p9
V28 June 16:00
p10
sS'number'
p11
I53
sS'awayGoals'
p12
(lp13
I90
asS'homeGoals'
p14
(lp15
I18
aI84
asS'awayName'
p16
S'Slovakia'
p17
sS'homeName'
p18
S'Netherlands'
p19
sS'homeCode'
p20
S'NED'
p21
sS'homeCards'
p22
(I2
I0
I0
I2
tp23
sS'goalsCode'
p24
(lp25
(I18
VNED
p26
tp27
a(I84
VNED
p28
tp29
a(I90
VSVK
p30
tp31
asb.