(iglobals
MatchStat
p0
(dp1
S'group'
p2
S'A'
p3
sS'awayCode'
p4
S'URU'
p5
sS'hasResults'
p6
I01
sS'awayCards'
p7
(I0
I0
I0
I0
tp8
sS'when'
p9
S'16 June - 20:30'
p10
sS'number'
p11
I17
sS'awayGoals'
p12
(lp13
I24
aI80
aI90
asS'homeWiki'
p14
V:RSA: **Scott** (South Africa)
p15
sS'awayWiki'
p16
V:URU: **AJ** (Uruguay)
p17
sS'awayName'
p18
S'Uruguay'
p19
sS'homeName'
p20
S'South Africa'
p21
sS'goals'
p22
(lp23
(I24
g17
tp24
a(I80
g17
tp25
a(I90
g17
tp26
asS'homeGoals'
p27
(lp28
sS'homeCode'
p29
S'RSA'
p30
sS'homeCards'
p31
(I2
I0
I1
I6
tp32
sb.