(iglobals
MatchStat
p0
(dp1
S'group'
p2
S'G'
p3
sS'awayCode'
p4
S'PRK'
p5
sS'hasResults'
p6
I01
sS'awayCards'
p7
(I2
I0
I0
I2
tp8
sS'when'
p9
V21 June 13:30
p10
sS'number'
p11
I30
sS'awayGoals'
p12
(lp13
sS'homeGoals'
p14
(lp15
I29
aI53
aI56
aI60
aI81
aI87
aI89
asS'awayName'
p16
S'Korea DPR'
p17
sS'homeName'
p18
S'Portugal'
p19
sS'homeCode'
p20
S'POR'
p21
sS'homeCards'
p22
(I2
I0
I0
I2
tp23
sS'goalsCode'
p24
(lp25
(I29
VPOR
p26
tp27
a(I53
VPOR
p28
tp29
a(I56
VPOR
p30
tp31
a(I60
VPOR
p32
tp33
a(I81
VPOR
p34
tp35
a(I87
VPOR
p36
tp37
a(I89
VPOR
p38
tp39
asb.