(iglobals
MatchStat
p0
(dp1
S'group'
p2
S'E'
p3
sS'awayCode'
p4
S'DEN'
p5
sS'hasResults'
p6
I00
sS'when'
p7
S'14 June - 13:30'
p8
sS'number'
p9
I9
sS'homeWiki'
p10
V:NED: **Lenka** (Netherlands)
p11
sS'awayWiki'
p12
V:DEN: **Jaroslav** (Denmark)
p13
sS'awayName'
p14
S'Denmark'
p15
sS'homeName'
p16
S'Netherlands'
p17
sS'homeCode'
p18
S'NED'
p19
sb.