(iglobals
MatchStat
p0
(dp1
S'group'
p2
S'A'
p3
sS'awayCode'
p4
S'MEX'
p5
sS'hasResults'
p6
I01
sS'awayCards'
p7
(I2
I0
I0
I2
tp8
sS'when'
p9
V11 June 16:00
p10
sS'number'
p11
I1
sS'awayGoals'
p12
(lp13
I79
asS'homeGoals'
p14
(lp15
I55
asS'awayName'
p16
S'Mexico'
p17
sS'homeName'
p18
S'South Africa'
p19
sS'homeCode'
p20
S'RSA'
p21
sS'homeCards'
p22
(I2
I0
I0
I2
tp23
sS'goalsCode'
p24
(lp25
(I55
VRSA
p26
tp27
a(I79
VMEX
p28
tp29
asb.