(iglobals
MatchStat
p0
(dp1
S'group'
p2
S'B'
p3
sS'awayCode'
p4
S'GRE'
p5
sS'hasResults'
p6
I00
sS'when'
p7
S'12 June - 13:30'
p8
sS'number'
p9
I4
sS'homeWiki'
p10
V:KOR: **V\u011bra** (Korea Republic)
p11
sS'awayWiki'
p12
V:GRE: **Anna** (Greece)
p13
sS'awayName'
p14
S'Greece'
p15
sS'homeName'
p16
S'Korea Republic'
p17
sS'homeCode'
p18
S'KOR'
p19
sb.