(iglobals
MatchStat
p0
(dp1
S'group'
p2
VRound of 16
p3
sS'awayCode'
p4
S'KOR'
p5
sS'hasResults'
p6
I01
sS'awayCards'
p7
(I3
I0
I0
I3
tp8
sS'when'
p9
V26 June 16:00
p10
sS'number'
p11
I49
sS'awayGoals'
p12
(lp13
I68
asS'homeGoals'
p14
(lp15
I8
aI80
asS'awayName'
p16
S'Korea Republic'
p17
sS'homeName'
p18
S'Uruguay'
p19
sS'homeCode'
p20
S'URU'
p21
sS'homeCards'
p22
(I0
I0
I0
I0
tp23
sS'goalsCode'
p24
(lp25
(I8
VURU
p26
tp27
a(I68
VKOR
p28
tp29
a(I80
VURU
p30
tp31
asb.