(iglobals
MatchStat
p0
(dp1
S'group'
p2
S'C'
p3
sS'awayCode'
p4
S'USA'
p5
sS'hasResults'
p6
I01
sS'awayCards'
p7
(I3
I0
I0
I3
tp8
sS'when'
p9
V12 June 20:30
p10
sS'number'
p11
I5
sS'awayGoals'
p12
(lp13
I40
asS'homeGoals'
p14
(lp15
I4
asS'awayName'
p16
S'USA'
p17
sS'homeName'
p18
S'England'
p19
sS'homeCode'
p20
S'ENG'
p21
sS'homeCards'
p22
(I3
I0
I0
I3
tp23
sS'goalsCode'
p24
(lp25
(I4
VENG
p26
tp27
a(I40
VUSA
p28
tp29
asb.