(iglobals
MatchStat
p0
(dp1
S'group'
p2
VRound of 16
p3
sS'awayCode'
p4
S'MEX'
p5
sS'hasResults'
p6
I01
sS'awayCards'
p7
(I1
I0
I0
I1
tp8
sS'when'
p9
V27 June 20:30
p10
sS'number'
p11
I52
sS'awayGoals'
p12
(lp13
I71
asS'homeGoals'
p14
(lp15
I26
aI33
aI52
asS'awayName'
p16
S'Mexico'
p17
sS'homeName'
p18
S'Argentina'
p19
sS'homeCode'
p20
S'ARG'
p21
sS'homeCards'
p22
(I0
I0
I0
I0
tp23
sS'goalsCode'
p24
(lp25
(I26
VARG
p26
tp27
a(I33
VARG
p28
tp29
a(I52
VARG
p30
tp31
a(I71
VMEX
p32
tp33
asb.