(iglobals
MatchStat
p0
(dp1
S'group'
p2
VRound of 16
p3
sS'awayCode'
p4
S'POR'
p5
sS'hasResults'
p6
I01
sS'awayCards'
p7
(I1
I0
I1
I5
tp8
sS'when'
p9
V29 June 20:30
p10
sS'number'
p11
I56
sS'awayGoals'
p12
(lp13
sS'homeGoals'
p14
(lp15
I63
asS'awayName'
p16
S'Portugal'
p17
sS'homeName'
p18
S'Spain'
p19
sS'homeCode'
p20
S'ESP'
p21
sS'homeCards'
p22
(I1
I0
I0
I1
tp23
sS'goalsCode'
p24
(lp25
(I63
VESP
p26
tp27
asb.