(iglobals
MatchStat
p0
(dp1
S'group'
p2
VQuarter-finals
p3
sS'awayCode'
p4
S'GER'
p5
sS'hasResults'
p6
I00
sS'when'
p7
V03 July 16:00
p8
sS'number'
p9
I59
sS'awayName'
p10
S'Germany'
p11
sS'homeName'
p12
S'Argentina'
p13
sS'homeCode'
p14
S'ARG'
p15
sb.